#include <math.h>
#include <stdio.h>
#include <stdlib.h>
#include <string.h>
#include <iostream>
using namespace std;

/*
 * 1000010548-26.cpp
 *  ??: 2010-10-30
 *  ??: ??
 *  ???????????
 */
int main(){//?????
	int n,k;//??????
	int i,j;//??????
	cin>>n;//??n
	int a[n];//???????
	for(i=0;i<=n-1;i++)//??????
	  cin>>a[i];//????????
	cin >>k;//??k
	for(i=0;i<=n-1;i++){//??????
		if (a[i]==k){//??
			for(j=i;j<n-1;j++)//?????????
				a[j]=a[j+1];//????????????????
			i--;// i??
			n--;//j??

		}

	}
	for(i=0;i<=n-2;i++)//??????
		cout<<a[i]<<" ";//???????????
	cout<<a[i]<<endl;//??????
	return 0;//?????
}